; Function Attrs: nounwind uwtable
define zeroext i8 @l_Sum_beqSum____x40_Init_Data_Sum_Basic___hyg_5____at_Lean_Elab_Tactic_SolveByElim_parseArgs___spec__5(ptr noundef %0, ptr noundef %1) local_unnamed_addr #0 {
  %3 = ptrtoint ptr %0 to i64
  %4 = and i64 %3, 1
  %.not.i51 = icmp eq i64 %4, 0
  br i1 %.not.i51, label %8, label %5

5:                                                ; preds = %2
  %6 = lshr i64 %3, 1
  %7 = trunc i64 %6 to i32
  br label %lean_obj_tag.exit

8:                                                ; preds = %2
  %9 = getelementptr i8, ptr %0, i64 4
  %.val.i = load i32, ptr %9, align 4
  %10 = lshr i32 %.val.i, 24
  br label %lean_obj_tag.exit

lean_obj_tag.exit:                                ; preds = %5, %8
  %.0.i = phi i32 [ %7, %5 ], [ %10, %8 ]
  %11 = icmp eq i32 %.0.i, 0
  %12 = ptrtoint ptr %1 to i64
  %13 = and i64 %12, 1
  %.not.i52 = icmp eq i64 %13, 0
  br i1 %11, label %14, label %68

14:                                               ; preds = %lean_obj_tag.exit
  br i1 %.not.i52, label %lean_obj_tag.exit55.thread, label %lean_obj_tag.exit55

lean_obj_tag.exit55:                              ; preds = %14
  %15 = and i64 %12, 8589934590
  %16 = icmp eq i64 %15, 0
  br i1 %16, label %19, label %lean_dec.exit31

lean_obj_tag.exit55.thread:                       ; preds = %14
  %17 = getelementptr i8, ptr %1, i64 4
  %.val.i54 = load i32, ptr %17, align 4
  %18 = icmp ult i32 %.val.i54, 16777216
  br i1 %18, label %19, label %.thread

19:                                               ; preds = %lean_obj_tag.exit55.thread, %lean_obj_tag.exit55
  %20 = getelementptr inbounds nuw i8, ptr %0, i64 8
  %21 = load ptr, ptr %20, align 8, !tbaa !4
  %22 = ptrtoint ptr %21 to i64
  %23 = and i64 %22, 1
  %.not79 = icmp eq i64 %23, 0
  br i1 %.not79, label %24, label %lean_inc.exit36

24:                                               ; preds = %19
  %.val.i56 = load i32, ptr %21, align 4, !tbaa !8
  %25 = icmp sgt i32 %.val.i56, 0
  br i1 %25, label %26, label %28, !prof !11

26:                                               ; preds = %24
  %27 = add nuw i32 %.val.i56, 1
  store i32 %27, ptr %21, align 4, !tbaa !8
  br label %lean_inc.exit36

28:                                               ; preds = %24
  %.not.i57 = icmp eq i32 %.val.i56, 0
  br i1 %.not.i57, label %lean_inc.exit36, label %29

29:                                               ; preds = %28
  tail call void @lean_inc_ref_cold(ptr noundef nonnull %21) #4
  br label %lean_inc.exit36

lean_inc.exit36:                                  ; preds = %29, %28, %26, %19
  br i1 %.not.i51, label %30, label %lean_dec.exit33

30:                                               ; preds = %lean_inc.exit36
  %31 = load i32, ptr %0, align 4, !tbaa !8
  %32 = icmp sgt i32 %31, 1
  br i1 %32, label %33, label %35, !prof !11

33:                                               ; preds = %30
  %34 = add nsw i32 %31, -1
  store i32 %34, ptr %0, align 4, !tbaa !8
  br label %lean_dec.exit33

35:                                               ; preds = %30
  %.not.i = icmp eq i32 %31, 0
  br i1 %.not.i, label %lean_dec.exit33, label %36

36:                                               ; preds = %35
  tail call void @lean_dec_ref_cold(ptr noundef nonnull %0) #4
  br label %lean_dec.exit33

lean_dec.exit33:                                  ; preds = %36, %35, %33, %lean_inc.exit36
  %37 = getelementptr inbounds nuw i8, ptr %1, i64 8
  %38 = load ptr, ptr %37, align 8, !tbaa !4
  %39 = ptrtoint ptr %38 to i64
  %40 = and i64 %39, 1
  %.not81 = icmp eq i64 %40, 0
  br i1 %.not81, label %41, label %lean_inc.exit35

41:                                               ; preds = %lean_dec.exit33
  %.val.i58 = load i32, ptr %38, align 4, !tbaa !8
  %42 = icmp sgt i32 %.val.i58, 0
  br i1 %42, label %43, label %45, !prof !11

43:                                               ; preds = %41
  %44 = add nuw i32 %.val.i58, 1
  store i32 %44, ptr %38, align 4, !tbaa !8
  br label %lean_inc.exit35

45:                                               ; preds = %41
  %.not.i59 = icmp eq i32 %.val.i58, 0
  br i1 %.not.i59, label %lean_inc.exit35, label %46

46:                                               ; preds = %45
  tail call void @lean_inc_ref_cold(ptr noundef nonnull %38) #4
  br label %lean_inc.exit35

lean_inc.exit35:                                  ; preds = %46, %45, %43, %lean_dec.exit33
  br i1 %.not.i52, label %47, label %lean_dec.exit32

47:                                               ; preds = %lean_inc.exit35
  %48 = load i32, ptr %1, align 4, !tbaa !8
  %49 = icmp sgt i32 %48, 1
  br i1 %49, label %50, label %52, !prof !11

50:                                               ; preds = %47
  %51 = add nsw i32 %48, -1
  store i32 %51, ptr %1, align 4, !tbaa !8
  br label %lean_dec.exit32

52:                                               ; preds = %47
  %.not.i37 = icmp eq i32 %48, 0
  br i1 %.not.i37, label %lean_dec.exit32, label %53

53:                                               ; preds = %52
  tail call void @lean_dec_ref_cold(ptr noundef nonnull %1) #4
  br label %lean_dec.exit32

lean_dec.exit32:                                  ; preds = %53, %52, %50, %lean_inc.exit35
  %54 = tail call zeroext i8 @l_Lean_Syntax_structEq(ptr noundef %21, ptr noundef %38) #4
  br label %lean_dec.exit30

.thread:                                          ; preds = %lean_obj_tag.exit55.thread
  %55 = load i32, ptr %1, align 4, !tbaa !8
  %56 = icmp sgt i32 %55, 1
  br i1 %56, label %57, label %59, !prof !11

57:                                               ; preds = %.thread
  %58 = add nsw i32 %55, -1
  store i32 %58, ptr %1, align 4, !tbaa !8
  br label %lean_dec.exit31

59:                                               ; preds = %.thread
  %.not.i39 = icmp eq i32 %55, 0
  br i1 %.not.i39, label %lean_dec.exit31, label %60

60:                                               ; preds = %59
  tail call void @lean_dec_ref_cold(ptr noundef nonnull %1) #4
  br label %lean_dec.exit31

lean_dec.exit31:                                  ; preds = %lean_obj_tag.exit55, %60, %59, %57
  br i1 %.not.i51, label %61, label %lean_dec.exit30

61:                                               ; preds = %lean_dec.exit31
  %62 = load i32, ptr %0, align 4, !tbaa !8
  %63 = icmp sgt i32 %62, 1
  br i1 %63, label %64, label %66, !prof !11

64:                                               ; preds = %61
  %65 = add nsw i32 %62, -1
  store i32 %65, ptr %0, align 4, !tbaa !8
  br label %lean_dec.exit30

66:                                               ; preds = %61
  %.not.i41 = icmp eq i32 %62, 0
  br i1 %.not.i41, label %lean_dec.exit30, label %67

67:                                               ; preds = %66
  tail call void @lean_dec_ref_cold(ptr noundef nonnull %0) #4
  br label %lean_dec.exit30

68:                                               ; preds = %lean_obj_tag.exit
  br i1 %.not.i52, label %lean_obj_tag.exit64.thread, label %lean_obj_tag.exit64

lean_obj_tag.exit64:                              ; preds = %68
  %69 = and i64 %12, 8589934590
  %70 = icmp eq i64 %69, 0
  br i1 %70, label %lean_dec.exit29, label %86

lean_obj_tag.exit64.thread:                       ; preds = %68
  %71 = getelementptr i8, ptr %1, i64 4
  %.val.i63 = load i32, ptr %71, align 4
  %72 = icmp ult i32 %.val.i63, 16777216
  br i1 %72, label %.thread73, label %86

.thread73:                                        ; preds = %lean_obj_tag.exit64.thread
  %73 = load i32, ptr %1, align 4, !tbaa !8
  %74 = icmp sgt i32 %73, 1
  br i1 %74, label %75, label %77, !prof !11

75:                                               ; preds = %.thread73
  %76 = add nsw i32 %73, -1
  store i32 %76, ptr %1, align 4, !tbaa !8
  br label %lean_dec.exit29

77:                                               ; preds = %.thread73
  %.not.i43 = icmp eq i32 %73, 0
  br i1 %.not.i43, label %lean_dec.exit29, label %78

78:                                               ; preds = %77
  tail call void @lean_dec_ref_cold(ptr noundef nonnull %1) #4
  br label %lean_dec.exit29

lean_dec.exit29:                                  ; preds = %lean_obj_tag.exit64, %78, %77, %75
  br i1 %.not.i51, label %79, label %lean_dec.exit30

79:                                               ; preds = %lean_dec.exit29
  %80 = load i32, ptr %0, align 4, !tbaa !8
  %81 = icmp sgt i32 %80, 1
  br i1 %81, label %82, label %84, !prof !11

82:                                               ; preds = %79
  %83 = add nsw i32 %80, -1
  store i32 %83, ptr %0, align 4, !tbaa !8
  br label %lean_dec.exit30

84:                                               ; preds = %79
  %.not.i45 = icmp eq i32 %80, 0
  br i1 %.not.i45, label %lean_dec.exit30, label %85

85:                                               ; preds = %84
  tail call void @lean_dec_ref_cold(ptr noundef nonnull %0) #4
  br label %lean_dec.exit30

86:                                               ; preds = %lean_obj_tag.exit64.thread, %lean_obj_tag.exit64
  %87 = getelementptr inbounds nuw i8, ptr %0, i64 8
  %88 = load ptr, ptr %87, align 8, !tbaa !4
  %89 = ptrtoint ptr %88 to i64
  %90 = and i64 %89, 1
  %.not = icmp eq i64 %90, 0
  br i1 %.not, label %91, label %lean_inc.exit34

91:                                               ; preds = %86
  %.val.i65 = load i32, ptr %88, align 4, !tbaa !8
  %92 = icmp sgt i32 %.val.i65, 0
  br i1 %92, label %93, label %95, !prof !11

93:                                               ; preds = %91
  %94 = add nuw i32 %.val.i65, 1
  store i32 %94, ptr %88, align 4, !tbaa !8
  br label %lean_inc.exit34

95:                                               ; preds = %91
  %.not.i66 = icmp eq i32 %.val.i65, 0
  br i1 %.not.i66, label %lean_inc.exit34, label %96

96:                                               ; preds = %95
  tail call void @lean_inc_ref_cold(ptr noundef nonnull %88) #4
  br label %lean_inc.exit34

lean_inc.exit34:                                  ; preds = %96, %95, %93, %86
  br i1 %.not.i51, label %97, label %lean_dec.exit27

97:                                               ; preds = %lean_inc.exit34
  %98 = load i32, ptr %0, align 4, !tbaa !8
  %99 = icmp sgt i32 %98, 1
  br i1 %99, label %100, label %102, !prof !11

100:                                              ; preds = %97
  %101 = add nsw i32 %98, -1
  store i32 %101, ptr %0, align 4, !tbaa !8
  br label %lean_dec.exit27

102:                                              ; preds = %97
  %.not.i47 = icmp eq i32 %98, 0
  br i1 %.not.i47, label %lean_dec.exit27, label %103

103:                                              ; preds = %102
  tail call void @lean_dec_ref_cold(ptr noundef nonnull %0) #4
  br label %lean_dec.exit27

lean_dec.exit27:                                  ; preds = %103, %102, %100, %lean_inc.exit34
  %104 = getelementptr inbounds nuw i8, ptr %1, i64 8
  %105 = load ptr, ptr %104, align 8, !tbaa !4
  %106 = ptrtoint ptr %105 to i64
  %107 = and i64 %106, 1
  %.not75 = icmp eq i64 %107, 0
  br i1 %.not75, label %108, label %lean_inc.exit

108:                                              ; preds = %lean_dec.exit27
  %.val.i68 = load i32, ptr %105, align 4, !tbaa !8
  %109 = icmp sgt i32 %.val.i68, 0
  br i1 %109, label %110, label %112, !prof !11

110:                                              ; preds = %108
  %111 = add nuw i32 %.val.i68, 1
  store i32 %111, ptr %105, align 4, !tbaa !8
  br label %lean_inc.exit

112:                                              ; preds = %108
  %.not.i69 = icmp eq i32 %.val.i68, 0
  br i1 %.not.i69, label %lean_inc.exit, label %113

113:                                              ; preds = %112
  tail call void @lean_inc_ref_cold(ptr noundef nonnull %105) #4
  br label %lean_inc.exit

lean_inc.exit:                                    ; preds = %113, %112, %110, %lean_dec.exit27
  br i1 %.not.i52, label %114, label %lean_dec.exit

114:                                              ; preds = %lean_inc.exit
  %115 = load i32, ptr %1, align 4, !tbaa !8
  %116 = icmp sgt i32 %115, 1
  br i1 %116, label %117, label %119, !prof !11

117:                                              ; preds = %114
  %118 = add nsw i32 %115, -1
  store i32 %118, ptr %1, align 4, !tbaa !8
  br label %lean_dec.exit

119:                                              ; preds = %114
  %.not.i49 = icmp eq i32 %115, 0
  br i1 %.not.i49, label %lean_dec.exit, label %120

120:                                              ; preds = %119
  tail call void @lean_dec_ref_cold(ptr noundef nonnull %1) #4
  br label %lean_dec.exit

lean_dec.exit:                                    ; preds = %120, %119, %117, %lean_inc.exit
  %121 = tail call zeroext i8 @l_Lean_Syntax_structEq(ptr noundef %88, ptr noundef %105) #4
  br label %lean_dec.exit30

lean_dec.exit30:                                  ; preds = %lean_dec.exit29, %82, %84, %85, %lean_dec.exit31, %64, %66, %67, %lean_dec.exit, %lean_dec.exit32
  %.0 = phi i8 [ %54, %lean_dec.exit32 ], [ %121, %lean_dec.exit ], [ 0, %67 ], [ 0, %66 ], [ 0, %64 ], [ 0, %lean_dec.exit31 ], [ 0, %85 ], [ 0, %84 ], [ 0, %82 ], [ 0, %lean_dec.exit29 ]
  ret i8 %.0
}